ARM GAS  C:\Users\kotaro\AppData\Local\Temp\ccL6R3GD.s 			page 1


   1              		.cpu cortex-m4
   2              		.eabi_attribute 27, 1
   3              		.eabi_attribute 28, 1
   4              		.eabi_attribute 20, 1
   5              		.eabi_attribute 21, 1
   6              		.eabi_attribute 23, 3
   7              		.eabi_attribute 24, 1
   8              		.eabi_attribute 25, 1
   9              		.eabi_attribute 26, 1
  10              		.eabi_attribute 30, 1
  11              		.eabi_attribute 34, 1
  12              		.eabi_attribute 18, 4
  13              		.file	"main.c"
  14              		.text
  15              	.Ltext0:
  16              		.cfi_sections	.debug_frame
  17              		.section	.text.__io_putchar,"ax",%progbits
  18              		.align	1
  19              		.global	__io_putchar
  20              		.syntax unified
  21              		.thumb
  22              		.thumb_func
  23              		.fpu fpv4-sp-d16
  25              	__io_putchar:
  26              	.LFB126:
  27              		.file 1 "Src/main.c"
   1:Src/main.c    **** /**
   2:Src/main.c    ****   ******************************************************************************
   3:Src/main.c    ****   * @file           : main.c
   4:Src/main.c    ****   * @brief          : Main program body
   5:Src/main.c    ****   ******************************************************************************
   6:Src/main.c    ****   ** This notice applies to any and all portions of this file
   7:Src/main.c    ****   * that are not between comment pairs USER CODE BEGIN and
   8:Src/main.c    ****   * USER CODE END. Other portions of this file, whether 
   9:Src/main.c    ****   * inserted by the user or by software development tools
  10:Src/main.c    ****   * are owned by their respective copyright owners.
  11:Src/main.c    ****   *
  12:Src/main.c    ****   * COPYRIGHT(c) 2018 STMicroelectronics
  13:Src/main.c    ****   *
  14:Src/main.c    ****   * Redistribution and use in source and binary forms, with or without modification,
  15:Src/main.c    ****   * are permitted provided that the following conditions are met:
  16:Src/main.c    ****   *   1. Redistributions of source code must retain the above copyright notice,
  17:Src/main.c    ****   *      this list of conditions and the following disclaimer.
  18:Src/main.c    ****   *   2. Redistributions in binary form must reproduce the above copyright notice,
  19:Src/main.c    ****   *      this list of conditions and the following disclaimer in the documentation
  20:Src/main.c    ****   *      and/or other materials provided with the distribution.
  21:Src/main.c    ****   *   3. Neither the name of STMicroelectronics nor the names of its contributors
  22:Src/main.c    ****   *      may be used to endorse or promote products derived from this software
  23:Src/main.c    ****   *      without specific prior written permission.
  24:Src/main.c    ****   *
  25:Src/main.c    ****   * THIS SOFTWARE IS PROVIDED BY THE COPYRIGHT HOLDERS AND CONTRIBUTORS "AS IS"
  26:Src/main.c    ****   * AND ANY EXPRESS OR IMPLIED WARRANTIES, INCLUDING, BUT NOT LIMITED TO, THE
  27:Src/main.c    ****   * IMPLIED WARRANTIES OF MERCHANTABILITY AND FITNESS FOR A PARTICULAR PURPOSE ARE
  28:Src/main.c    ****   * DISCLAIMED. IN NO EVENT SHALL THE COPYRIGHT HOLDER OR CONTRIBUTORS BE LIABLE
  29:Src/main.c    ****   * FOR ANY DIRECT, INDIRECT, INCIDENTAL, SPECIAL, EXEMPLARY, OR CONSEQUENTIAL
  30:Src/main.c    ****   * DAMAGES (INCLUDING, BUT NOT LIMITED TO, PROCUREMENT OF SUBSTITUTE GOODS OR
  31:Src/main.c    ****   * SERVICES; LOSS OF USE, DATA, OR PROFITS; OR BUSINESS INTERRUPTION) HOWEVER
ARM GAS  C:\Users\kotaro\AppData\Local\Temp\ccL6R3GD.s 			page 2


  32:Src/main.c    ****   * CAUSED AND ON ANY THEORY OF LIABILITY, WHETHER IN CONTRACT, STRICT LIABILITY,
  33:Src/main.c    ****   * OR TORT (INCLUDING NEGLIGENCE OR OTHERWISE) ARISING IN ANY WAY OUT OF THE USE
  34:Src/main.c    ****   * OF THIS SOFTWARE, EVEN IF ADVISED OF THE POSSIBILITY OF SUCH DAMAGE.
  35:Src/main.c    ****   *
  36:Src/main.c    ****   ******************************************************************************
  37:Src/main.c    ****   */
  38:Src/main.c    **** /* Includes ------------------------------------------------------------------*/
  39:Src/main.c    **** #include "main.h"
  40:Src/main.c    **** #include "stm32f4xx_hal.h"
  41:Src/main.c    **** #include "adc.h"
  42:Src/main.c    **** #include "spi.h"
  43:Src/main.c    **** #include "tim.h"
  44:Src/main.c    **** #include "usart.h"
  45:Src/main.c    **** #include "gpio.h"
  46:Src/main.c    **** 
  47:Src/main.c    **** /* USER CODE BEGIN Includes */
  48:Src/main.c    **** #include <stdio.h>
  49:Src/main.c    **** #include <string.h>
  50:Src/main.c    **** #include <math.h>
  51:Src/main.c    **** 
  52:Src/main.c    **** #ifdef __GNUC__
  53:Src/main.c    **** #define PUTCHAR_PROTOTYPE int __io_putchar(int ch)
  54:Src/main.c    **** #else
  55:Src/main.c    **** #define PUTCHAR_PROTOTYPE int fputc(int ch, FILE *f)
  56:Src/main.c    **** #endif /* __GNUC__ */
  57:Src/main.c    **** void __io_putchar(uint8_t ch) {
  28              		.loc 1 57 0
  29              		.cfi_startproc
  30              		@ args = 0, pretend = 0, frame = 8
  31              		@ frame_needed = 0, uses_anonymous_args = 0
  32              	.LVL0:
  33 0000 00B5     		push	{lr}
  34              	.LCFI0:
  35              		.cfi_def_cfa_offset 4
  36              		.cfi_offset 14, -4
  37 0002 83B0     		sub	sp, sp, #12
  38              	.LCFI1:
  39              		.cfi_def_cfa_offset 16
  40 0004 02A9     		add	r1, sp, #8
  41 0006 01F8010D 		strb	r0, [r1, #-1]!
  58:Src/main.c    ****   HAL_UART_Transmit(&huart1, &ch, 1, 1);
  42              		.loc 1 58 0
  43 000a 0123     		movs	r3, #1
  44 000c 1A46     		mov	r2, r3
  45 000e 0348     		ldr	r0, .L3
  46              	.LVL1:
  47 0010 FFF7FEFF 		bl	HAL_UART_Transmit
  48              	.LVL2:
  59:Src/main.c    **** }
  49              		.loc 1 59 0
  50 0014 03B0     		add	sp, sp, #12
  51              	.LCFI2:
  52              		.cfi_def_cfa_offset 4
  53              		@ sp needed
  54 0016 5DF804FB 		ldr	pc, [sp], #4
  55              	.L4:
  56 001a 00BF     		.align	2
ARM GAS  C:\Users\kotaro\AppData\Local\Temp\ccL6R3GD.s 			page 3


  57              	.L3:
  58 001c 00000000 		.word	huart1
  59              		.cfi_endproc
  60              	.LFE126:
  62              		.section	.text.ktr_Control_motor,"ax",%progbits
  63              		.align	1
  64              		.global	ktr_Control_motor
  65              		.syntax unified
  66              		.thumb
  67              		.thumb_func
  68              		.fpu fpv4-sp-d16
  70              	ktr_Control_motor:
  71              	.LFB129:
  60:Src/main.c    **** /* USER CODE END Includes */
  61:Src/main.c    **** 
  62:Src/main.c    **** /* Private variables ---------------------------------------------------------*/
  63:Src/main.c    **** 
  64:Src/main.c    **** /* USER CODE BEGIN PV */
  65:Src/main.c    **** 
  66:Src/main.c    **** /* Private variables ---------------------------------------------------------*/
  67:Src/main.c    **** 
  68:Src/main.c    **** /* USER CODE END PV */
  69:Src/main.c    **** 
  70:Src/main.c    **** /* Private function prototypes -----------------------------------------------*/
  71:Src/main.c    **** void SystemClock_Config(void);
  72:Src/main.c    **** 
  73:Src/main.c    **** /* USER CODE BEGIN PFP */
  74:Src/main.c    **** /* Private function prototypes -----------------------------------------------*/
  75:Src/main.c    **** 
  76:Src/main.c    **** /* USER CODE END PFP */
  77:Src/main.c    **** 
  78:Src/main.c    **** /* USER CODE BEGIN 0 */
  79:Src/main.c    **** 
  80:Src/main.c    **** /* USER CODE END 0 */
  81:Src/main.c    **** 
  82:Src/main.c    **** /**
  83:Src/main.c    ****   * @brief  The application entry point.
  84:Src/main.c    ****   *
  85:Src/main.c    ****   * @retval None
  86:Src/main.c    ****   */
  87:Src/main.c    **** int main(void)
  88:Src/main.c    **** {
  89:Src/main.c    ****   /* USER CODE BEGIN 1 */
  90:Src/main.c    **** 
  91:Src/main.c    ****   /* USER CODE END 1 */
  92:Src/main.c    **** 
  93:Src/main.c    ****   /* MCU Configuration----------------------------------------------------------*/
  94:Src/main.c    **** 
  95:Src/main.c    ****   /* Reset of all peripherals, Initializes the Flash interface and the Systick. */
  96:Src/main.c    ****   HAL_Init();
  97:Src/main.c    **** 
  98:Src/main.c    ****   /* USER CODE BEGIN Init */
  99:Src/main.c    **** 
 100:Src/main.c    ****   /* USER CODE END Init */
 101:Src/main.c    **** 
 102:Src/main.c    ****   /* Configure the system clock */
 103:Src/main.c    ****   SystemClock_Config();
ARM GAS  C:\Users\kotaro\AppData\Local\Temp\ccL6R3GD.s 			page 4


 104:Src/main.c    **** 
 105:Src/main.c    ****   /* USER CODE BEGIN SysInit */
 106:Src/main.c    **** 
 107:Src/main.c    ****   /* USER CODE END SysInit */
 108:Src/main.c    **** 
 109:Src/main.c    ****   /* Initialize all configured peripherals */
 110:Src/main.c    ****   MX_GPIO_Init();
 111:Src/main.c    ****   MX_USART1_UART_Init();
 112:Src/main.c    ****   MX_TIM4_Init();
 113:Src/main.c    ****   MX_TIM1_Init();
 114:Src/main.c    ****   MX_TIM2_Init();
 115:Src/main.c    ****   MX_TIM3_Init();
 116:Src/main.c    ****   MX_SPI2_Init();
 117:Src/main.c    ****   MX_ADC1_Init();
 118:Src/main.c    ****   MX_ADC2_Init();
 119:Src/main.c    ****   MX_ADC3_Init();
 120:Src/main.c    ****   MX_TIM5_Init();
 121:Src/main.c    ****   /* USER CODE BEGIN 2 */
 122:Src/main.c    **** 
 123:Src/main.c    **** 
 124:Src/main.c    ****   //test
 125:Src/main.c    ****   ktr_LED(1,Cyan);
 126:Src/main.c    ****   //end test
 127:Src/main.c    **** 
 128:Src/main.c    ****   //test ktr_buzzer()
 129:Src/main.c    ****   ktr_Buzzer(D,800);
 130:Src/main.c    ****   HAL_Delay(500);
 131:Src/main.c    ****   ktr_Buzzer(NORMAL,0);
 132:Src/main.c    ****   //end test ktr_buzzer()
 133:Src/main.c    **** 
 134:Src/main.c    **** 
 135:Src/main.c    ****   //test void ktr_set_l3gd20()
 136:Src/main.c    ****   ktr_set_l3gd20();
 137:Src/main.c    ****   //HAL_TIM_Base_Start_IT( &htim5 );  // irq timer 250us
 138:Src/main.c    ****   //end test void ktr_set_l3gd20()
 139:Src/main.c    **** 
 140:Src/main.c    ****   //HAL_GPIO_WritePin(stby_GPIO_Port,stby_Pin,GPIO_PIN_SET);//enable ktr_Contlor_motor
 141:Src/main.c    ****   setbuf(stdout, NULL); //printf use
 142:Src/main.c    **** 
 143:Src/main.c    ****   /* USER CODE END 2 */
 144:Src/main.c    **** 
 145:Src/main.c    ****   /* Infinite loop */
 146:Src/main.c    ****   /* USER CODE BEGIN WHILE */
 147:Src/main.c    ****   while (1)
 148:Src/main.c    ****   {
 149:Src/main.c    ****    //test ktr_get_gyro()
 150:Src/main.c    ****    printf( "%04d\r",ktr_get_gyro() );
 151:Src/main.c    ****    //end test ktr_get_gyro()
 152:Src/main.c    **** 
 153:Src/main.c    ****   /* USER CODE END WHILE */
 154:Src/main.c    **** 
 155:Src/main.c    ****   /* USER CODE BEGIN 3 */
 156:Src/main.c    **** 
 157:Src/main.c    ****   }
 158:Src/main.c    ****   /* USER CODE END 3 */
 159:Src/main.c    **** 
 160:Src/main.c    **** }
ARM GAS  C:\Users\kotaro\AppData\Local\Temp\ccL6R3GD.s 			page 5


 161:Src/main.c    **** 
 162:Src/main.c    **** /*
 163:Src/main.c    ****   * @brief System Clock Configuration
 164:Src/main.c    ****   * @retval None
 165:Src/main.c    ****   */
 166:Src/main.c    **** void SystemClock_Config(void)
 167:Src/main.c    **** {
 168:Src/main.c    **** 
 169:Src/main.c    ****   RCC_OscInitTypeDef RCC_OscInitStruct;
 170:Src/main.c    ****   RCC_ClkInitTypeDef RCC_ClkInitStruct;
 171:Src/main.c    **** 
 172:Src/main.c    ****     /**Configure the main internal regulator output voltage 
 173:Src/main.c    ****     */
 174:Src/main.c    ****   __HAL_RCC_PWR_CLK_ENABLE();
 175:Src/main.c    **** 
 176:Src/main.c    ****   __HAL_PWR_VOLTAGESCALING_CONFIG(PWR_REGULATOR_VOLTAGE_SCALE1);
 177:Src/main.c    **** 
 178:Src/main.c    ****     /**Initializes the CPU, AHB and APB busses clocks 
 179:Src/main.c    ****     */
 180:Src/main.c    ****   RCC_OscInitStruct.OscillatorType = RCC_OSCILLATORTYPE_HSI;
 181:Src/main.c    ****   RCC_OscInitStruct.HSIState = RCC_HSI_ON;
 182:Src/main.c    ****   RCC_OscInitStruct.HSICalibrationValue = 16;
 183:Src/main.c    ****   RCC_OscInitStruct.PLL.PLLState = RCC_PLL_ON;
 184:Src/main.c    ****   RCC_OscInitStruct.PLL.PLLSource = RCC_PLLSOURCE_HSI;
 185:Src/main.c    ****   RCC_OscInitStruct.PLL.PLLM = 8;
 186:Src/main.c    ****   RCC_OscInitStruct.PLL.PLLN = 80;
 187:Src/main.c    ****   RCC_OscInitStruct.PLL.PLLP = RCC_PLLP_DIV2;
 188:Src/main.c    ****   RCC_OscInitStruct.PLL.PLLQ = 4;
 189:Src/main.c    ****   if (HAL_RCC_OscConfig(&RCC_OscInitStruct) != HAL_OK)
 190:Src/main.c    ****   {
 191:Src/main.c    ****     _Error_Handler(__FILE__, __LINE__);
 192:Src/main.c    ****   }
 193:Src/main.c    **** 
 194:Src/main.c    ****     /**Initializes the CPU, AHB and APB busses clocks 
 195:Src/main.c    ****     */
 196:Src/main.c    ****   RCC_ClkInitStruct.ClockType = RCC_CLOCKTYPE_HCLK|RCC_CLOCKTYPE_SYSCLK
 197:Src/main.c    ****                               |RCC_CLOCKTYPE_PCLK1|RCC_CLOCKTYPE_PCLK2;
 198:Src/main.c    ****   RCC_ClkInitStruct.SYSCLKSource = RCC_SYSCLKSOURCE_PLLCLK;
 199:Src/main.c    ****   RCC_ClkInitStruct.AHBCLKDivider = RCC_SYSCLK_DIV2;
 200:Src/main.c    ****   RCC_ClkInitStruct.APB1CLKDivider = RCC_HCLK_DIV2;
 201:Src/main.c    ****   RCC_ClkInitStruct.APB2CLKDivider = RCC_HCLK_DIV1;
 202:Src/main.c    **** 
 203:Src/main.c    ****   if (HAL_RCC_ClockConfig(&RCC_ClkInitStruct, FLASH_LATENCY_1) != HAL_OK)
 204:Src/main.c    ****   {
 205:Src/main.c    ****     _Error_Handler(__FILE__, __LINE__);
 206:Src/main.c    ****   }
 207:Src/main.c    **** 
 208:Src/main.c    ****     /**Configure the Systick interrupt time 
 209:Src/main.c    ****     */
 210:Src/main.c    ****   HAL_SYSTICK_Config(HAL_RCC_GetHCLKFreq()/1000);
 211:Src/main.c    **** 
 212:Src/main.c    ****     /**Configure the Systick 
 213:Src/main.c    ****     */
 214:Src/main.c    ****   HAL_SYSTICK_CLKSourceConfig(SYSTICK_CLKSOURCE_HCLK);
 215:Src/main.c    **** 
 216:Src/main.c    ****   /* SysTick_IRQn interrupt configuration */
 217:Src/main.c    ****   HAL_NVIC_SetPriority(SysTick_IRQn, 0, 0);
ARM GAS  C:\Users\kotaro\AppData\Local\Temp\ccL6R3GD.s 			page 6


 218:Src/main.c    **** }
 219:Src/main.c    **** 
 220:Src/main.c    **** /* USER CODE BEGIN 4 */
 221:Src/main.c    **** 
 222:Src/main.c    **** 
 223:Src/main.c    **** /***************************************************************
 224:Src/main.c    ****  * effect : control motor power
 225:Src/main.c    ****  * r/l_accel : power vector
 226:Src/main.c    ****  * coution : on stby pin !
 227:Src/main.c    ****  **************************************************************/
 228:Src/main.c    **** 
 229:Src/main.c    **** void ktr_Control_motor(int r_accel,int l_accel){
  72              		.loc 1 229 0
  73              		.cfi_startproc
  74              		@ args = 0, pretend = 0, frame = 0
  75              		@ frame_needed = 0, uses_anonymous_args = 0
  76              	.LVL3:
  77 0000 70B5     		push	{r4, r5, r6, lr}
  78              	.LCFI3:
  79              		.cfi_def_cfa_offset 16
  80              		.cfi_offset 4, -16
  81              		.cfi_offset 5, -12
  82              		.cfi_offset 6, -8
  83              		.cfi_offset 14, -4
  84 0002 0C46     		mov	r4, r1
 230:Src/main.c    ****   //ringht accel
 231:Src/main.c    ****   if(r_accel>0){
  85              		.loc 1 231 0
  86 0004 051E     		subs	r5, r0, #0
  87 0006 0EDC     		bgt	.L11
 232:Src/main.c    ****     HAL_GPIO_WritePin(ain1_GPIO_Port,ain1_Pin,GPIO_PIN_SET);
 233:Src/main.c    ****     HAL_GPIO_WritePin(ain2_GPIO_Port,ain2_Pin,GPIO_PIN_RESET);
 234:Src/main.c    ****   }else if(r_accel<0){
  88              		.loc 1 234 0
  89 0008 002D     		cmp	r5, #0
  90 000a 17DA     		bge	.L7
 235:Src/main.c    ****     HAL_GPIO_WritePin(ain1_GPIO_Port,ain1_Pin,GPIO_PIN_RESET);
  91              		.loc 1 235 0
  92 000c 1C4E     		ldr	r6, .L14
  93 000e 0022     		movs	r2, #0
  94 0010 1021     		movs	r1, #16
  95              	.LVL4:
  96 0012 3046     		mov	r0, r6
  97              	.LVL5:
  98 0014 FFF7FEFF 		bl	HAL_GPIO_WritePin
  99              	.LVL6:
 236:Src/main.c    ****     HAL_GPIO_WritePin(ain2_GPIO_Port,ain2_Pin,GPIO_PIN_SET);
 100              		.loc 1 236 0
 101 0018 0122     		movs	r2, #1
 102 001a 0821     		movs	r1, #8
 103 001c 3046     		mov	r0, r6
 104 001e FFF7FEFF 		bl	HAL_GPIO_WritePin
 105              	.LVL7:
 237:Src/main.c    ****     r_accel *= -1;
 106              		.loc 1 237 0
 107 0022 6D42     		negs	r5, r5
 108              	.LVL8:
ARM GAS  C:\Users\kotaro\AppData\Local\Temp\ccL6R3GD.s 			page 7


 109 0024 0AE0     		b	.L7
 110              	.LVL9:
 111              	.L11:
 232:Src/main.c    ****     HAL_GPIO_WritePin(ain2_GPIO_Port,ain2_Pin,GPIO_PIN_RESET);
 112              		.loc 1 232 0
 113 0026 164E     		ldr	r6, .L14
 114 0028 0122     		movs	r2, #1
 115 002a 1021     		movs	r1, #16
 116              	.LVL10:
 117 002c 3046     		mov	r0, r6
 118              	.LVL11:
 119 002e FFF7FEFF 		bl	HAL_GPIO_WritePin
 120              	.LVL12:
 233:Src/main.c    ****   }else if(r_accel<0){
 121              		.loc 1 233 0
 122 0032 0022     		movs	r2, #0
 123 0034 0821     		movs	r1, #8
 124 0036 3046     		mov	r0, r6
 125 0038 FFF7FEFF 		bl	HAL_GPIO_WritePin
 126              	.LVL13:
 127              	.L7:
 238:Src/main.c    ****   }
 239:Src/main.c    **** 
 240:Src/main.c    ****   //left accel
 241:Src/main.c    ****   if(l_accel>0){
 128              		.loc 1 241 0
 129 003c 002C     		cmp	r4, #0
 130 003e 06DC     		bgt	.L12
 242:Src/main.c    ****     HAL_GPIO_WritePin(bin1_GPIO_Port,bin1_Pin,GPIO_PIN_SET);
 243:Src/main.c    ****     HAL_GPIO_WritePin(bin2_GPIO_Port,bin2_Pin,GPIO_PIN_RESET);
 244:Src/main.c    ****   }else if(l_accel<0){
 131              		.loc 1 244 0
 132 0040 002C     		cmp	r4, #0
 133 0042 10DB     		blt	.L13
 134              	.L9:
 245:Src/main.c    ****     HAL_GPIO_WritePin(bin1_GPIO_Port,bin1_Pin,GPIO_PIN_RESET);
 246:Src/main.c    ****     HAL_GPIO_WritePin(bin2_GPIO_Port,bin2_Pin,GPIO_PIN_SET);
 247:Src/main.c    ****     l_accel *= -1;
 248:Src/main.c    ****   }
 249:Src/main.c    **** 
 250:Src/main.c    ****   //set pwm
 251:Src/main.c    ****   ktr_Motor_pwm(r_accel,l_accel);
 135              		.loc 1 251 0
 136 0044 2146     		mov	r1, r4
 137 0046 2846     		mov	r0, r5
 138 0048 FFF7FEFF 		bl	ktr_Motor_pwm
 139              	.LVL14:
 252:Src/main.c    **** }
 140              		.loc 1 252 0
 141 004c 70BD     		pop	{r4, r5, r6, pc}
 142              	.LVL15:
 143              	.L12:
 242:Src/main.c    ****     HAL_GPIO_WritePin(bin1_GPIO_Port,bin1_Pin,GPIO_PIN_SET);
 144              		.loc 1 242 0
 145 004e 0122     		movs	r2, #1
 146 0050 0421     		movs	r1, #4
 147 0052 0C48     		ldr	r0, .L14+4
ARM GAS  C:\Users\kotaro\AppData\Local\Temp\ccL6R3GD.s 			page 8


 148 0054 FFF7FEFF 		bl	HAL_GPIO_WritePin
 149              	.LVL16:
 243:Src/main.c    ****   }else if(l_accel<0){
 150              		.loc 1 243 0
 151 0058 0022     		movs	r2, #0
 152 005a 4FF48051 		mov	r1, #4096
 153 005e 0A48     		ldr	r0, .L14+8
 154 0060 FFF7FEFF 		bl	HAL_GPIO_WritePin
 155              	.LVL17:
 156 0064 EEE7     		b	.L9
 157              	.L13:
 245:Src/main.c    ****     HAL_GPIO_WritePin(bin1_GPIO_Port,bin1_Pin,GPIO_PIN_RESET);
 158              		.loc 1 245 0
 159 0066 0022     		movs	r2, #0
 160 0068 0421     		movs	r1, #4
 161 006a 0648     		ldr	r0, .L14+4
 162 006c FFF7FEFF 		bl	HAL_GPIO_WritePin
 163              	.LVL18:
 246:Src/main.c    ****     l_accel *= -1;
 164              		.loc 1 246 0
 165 0070 0122     		movs	r2, #1
 166 0072 4FF48051 		mov	r1, #4096
 167 0076 0448     		ldr	r0, .L14+8
 168 0078 FFF7FEFF 		bl	HAL_GPIO_WritePin
 169              	.LVL19:
 247:Src/main.c    ****   }
 170              		.loc 1 247 0
 171 007c 6442     		negs	r4, r4
 172              	.LVL20:
 173 007e E1E7     		b	.L9
 174              	.L15:
 175              		.align	2
 176              	.L14:
 177 0080 00040240 		.word	1073873920
 178 0084 000C0240 		.word	1073875968
 179 0088 00080240 		.word	1073874944
 180              		.cfi_endproc
 181              	.LFE129:
 183              		.section	.text._Error_Handler,"ax",%progbits
 184              		.align	1
 185              		.global	_Error_Handler
 186              		.syntax unified
 187              		.thumb
 188              		.thumb_func
 189              		.fpu fpv4-sp-d16
 191              	_Error_Handler:
 192              	.LFB130:
 253:Src/main.c    **** 
 254:Src/main.c    **** //end oh ktr_Control_motor()
 255:Src/main.c    **** 
 256:Src/main.c    **** 
 257:Src/main.c    **** /* USER CODE END 4 */
 258:Src/main.c    **** 
 259:Src/main.c    **** /**
 260:Src/main.c    ****   * @brief  This function is executed in case of error occurrence.
 261:Src/main.c    ****   * @param  file: The file name as string.
 262:Src/main.c    ****   * @param  line: The line in file as a number.
ARM GAS  C:\Users\kotaro\AppData\Local\Temp\ccL6R3GD.s 			page 9


 263:Src/main.c    ****   * @retval None
 264:Src/main.c    ****   */
 265:Src/main.c    **** void _Error_Handler(char *file, int line)
 266:Src/main.c    **** {
 193              		.loc 1 266 0
 194              		.cfi_startproc
 195              		@ Volatile: function does not return.
 196              		@ args = 0, pretend = 0, frame = 0
 197              		@ frame_needed = 0, uses_anonymous_args = 0
 198              		@ link register save eliminated.
 199              	.LVL21:
 200              	.L17:
 201 0000 FEE7     		b	.L17
 202              		.cfi_endproc
 203              	.LFE130:
 205              		.section	.text.SystemClock_Config,"ax",%progbits
 206              		.align	1
 207              		.global	SystemClock_Config
 208              		.syntax unified
 209              		.thumb
 210              		.thumb_func
 211              		.fpu fpv4-sp-d16
 213              	SystemClock_Config:
 214              	.LFB128:
 167:Src/main.c    **** 
 215              		.loc 1 167 0
 216              		.cfi_startproc
 217              		@ args = 0, pretend = 0, frame = 80
 218              		@ frame_needed = 0, uses_anonymous_args = 0
 167:Src/main.c    **** 
 219              		.loc 1 167 0
 220 0000 00B5     		push	{lr}
 221              	.LCFI4:
 222              		.cfi_def_cfa_offset 4
 223              		.cfi_offset 14, -4
 224 0002 95B0     		sub	sp, sp, #84
 225              	.LCFI5:
 226              		.cfi_def_cfa_offset 88
 227              	.LBB2:
 174:Src/main.c    **** 
 228              		.loc 1 174 0
 229 0004 0022     		movs	r2, #0
 230 0006 0192     		str	r2, [sp, #4]
 231 0008 294B     		ldr	r3, .L24
 232 000a 196C     		ldr	r1, [r3, #64]
 233 000c 41F08051 		orr	r1, r1, #268435456
 234 0010 1964     		str	r1, [r3, #64]
 235 0012 1B6C     		ldr	r3, [r3, #64]
 236 0014 03F08053 		and	r3, r3, #268435456
 237 0018 0193     		str	r3, [sp, #4]
 238 001a 019B     		ldr	r3, [sp, #4]
 239              	.LBE2:
 240              	.LBB3:
 176:Src/main.c    **** 
 241              		.loc 1 176 0
 242 001c 0292     		str	r2, [sp, #8]
 243 001e 254B     		ldr	r3, .L24+4
ARM GAS  C:\Users\kotaro\AppData\Local\Temp\ccL6R3GD.s 			page 10


 244 0020 1968     		ldr	r1, [r3]
 245 0022 41F48041 		orr	r1, r1, #16384
 246 0026 1960     		str	r1, [r3]
 247 0028 1B68     		ldr	r3, [r3]
 248 002a 03F48043 		and	r3, r3, #16384
 249 002e 0293     		str	r3, [sp, #8]
 250 0030 029B     		ldr	r3, [sp, #8]
 251              	.LBE3:
 180:Src/main.c    ****   RCC_OscInitStruct.HSIState = RCC_HSI_ON;
 252              		.loc 1 180 0
 253 0032 0223     		movs	r3, #2
 254 0034 0893     		str	r3, [sp, #32]
 181:Src/main.c    ****   RCC_OscInitStruct.HSICalibrationValue = 16;
 255              		.loc 1 181 0
 256 0036 0121     		movs	r1, #1
 257 0038 0B91     		str	r1, [sp, #44]
 182:Src/main.c    ****   RCC_OscInitStruct.PLL.PLLState = RCC_PLL_ON;
 258              		.loc 1 182 0
 259 003a 1021     		movs	r1, #16
 260 003c 0C91     		str	r1, [sp, #48]
 183:Src/main.c    ****   RCC_OscInitStruct.PLL.PLLSource = RCC_PLLSOURCE_HSI;
 261              		.loc 1 183 0
 262 003e 0E93     		str	r3, [sp, #56]
 184:Src/main.c    ****   RCC_OscInitStruct.PLL.PLLM = 8;
 263              		.loc 1 184 0
 264 0040 0F92     		str	r2, [sp, #60]
 185:Src/main.c    ****   RCC_OscInitStruct.PLL.PLLN = 80;
 265              		.loc 1 185 0
 266 0042 0822     		movs	r2, #8
 267 0044 1092     		str	r2, [sp, #64]
 186:Src/main.c    ****   RCC_OscInitStruct.PLL.PLLP = RCC_PLLP_DIV2;
 268              		.loc 1 186 0
 269 0046 5022     		movs	r2, #80
 270 0048 1192     		str	r2, [sp, #68]
 187:Src/main.c    ****   RCC_OscInitStruct.PLL.PLLQ = 4;
 271              		.loc 1 187 0
 272 004a 1293     		str	r3, [sp, #72]
 188:Src/main.c    ****   if (HAL_RCC_OscConfig(&RCC_OscInitStruct) != HAL_OK)
 273              		.loc 1 188 0
 274 004c 0423     		movs	r3, #4
 275 004e 1393     		str	r3, [sp, #76]
 189:Src/main.c    ****   {
 276              		.loc 1 189 0
 277 0050 08A8     		add	r0, sp, #32
 278 0052 FFF7FEFF 		bl	HAL_RCC_OscConfig
 279              	.LVL22:
 280 0056 18BB     		cbnz	r0, .L22
 196:Src/main.c    ****                               |RCC_CLOCKTYPE_PCLK1|RCC_CLOCKTYPE_PCLK2;
 281              		.loc 1 196 0
 282 0058 0F23     		movs	r3, #15
 283 005a 0393     		str	r3, [sp, #12]
 198:Src/main.c    ****   RCC_ClkInitStruct.AHBCLKDivider = RCC_SYSCLK_DIV2;
 284              		.loc 1 198 0
 285 005c 0223     		movs	r3, #2
 286 005e 0493     		str	r3, [sp, #16]
 199:Src/main.c    ****   RCC_ClkInitStruct.APB1CLKDivider = RCC_HCLK_DIV2;
 287              		.loc 1 199 0
ARM GAS  C:\Users\kotaro\AppData\Local\Temp\ccL6R3GD.s 			page 11


 288 0060 8023     		movs	r3, #128
 289 0062 0593     		str	r3, [sp, #20]
 200:Src/main.c    ****   RCC_ClkInitStruct.APB2CLKDivider = RCC_HCLK_DIV1;
 290              		.loc 1 200 0
 291 0064 4FF48053 		mov	r3, #4096
 292 0068 0693     		str	r3, [sp, #24]
 201:Src/main.c    **** 
 293              		.loc 1 201 0
 294 006a 0023     		movs	r3, #0
 295 006c 0793     		str	r3, [sp, #28]
 203:Src/main.c    ****   {
 296              		.loc 1 203 0
 297 006e 0121     		movs	r1, #1
 298 0070 03A8     		add	r0, sp, #12
 299 0072 FFF7FEFF 		bl	HAL_RCC_ClockConfig
 300              	.LVL23:
 301 0076 B8B9     		cbnz	r0, .L23
 210:Src/main.c    **** 
 302              		.loc 1 210 0
 303 0078 FFF7FEFF 		bl	HAL_RCC_GetHCLKFreq
 304              	.LVL24:
 305 007c 0E4B     		ldr	r3, .L24+8
 306 007e A3FB0030 		umull	r3, r0, r3, r0
 307 0082 8009     		lsrs	r0, r0, #6
 308 0084 FFF7FEFF 		bl	HAL_SYSTICK_Config
 309              	.LVL25:
 214:Src/main.c    **** 
 310              		.loc 1 214 0
 311 0088 0420     		movs	r0, #4
 312 008a FFF7FEFF 		bl	HAL_SYSTICK_CLKSourceConfig
 313              	.LVL26:
 217:Src/main.c    **** }
 314              		.loc 1 217 0
 315 008e 0022     		movs	r2, #0
 316 0090 1146     		mov	r1, r2
 317 0092 4FF0FF30 		mov	r0, #-1
 318 0096 FFF7FEFF 		bl	HAL_NVIC_SetPriority
 319              	.LVL27:
 218:Src/main.c    **** 
 320              		.loc 1 218 0
 321 009a 15B0     		add	sp, sp, #84
 322              	.LCFI6:
 323              		.cfi_remember_state
 324              		.cfi_def_cfa_offset 4
 325              		@ sp needed
 326 009c 5DF804FB 		ldr	pc, [sp], #4
 327              	.L22:
 328              	.LCFI7:
 329              		.cfi_restore_state
 191:Src/main.c    ****   }
 330              		.loc 1 191 0
 331 00a0 BF21     		movs	r1, #191
 332 00a2 0648     		ldr	r0, .L24+12
 333 00a4 FFF7FEFF 		bl	_Error_Handler
 334              	.LVL28:
 335              	.L23:
 205:Src/main.c    ****   }
ARM GAS  C:\Users\kotaro\AppData\Local\Temp\ccL6R3GD.s 			page 12


 336              		.loc 1 205 0
 337 00a8 CD21     		movs	r1, #205
 338 00aa 0448     		ldr	r0, .L24+12
 339 00ac FFF7FEFF 		bl	_Error_Handler
 340              	.LVL29:
 341              	.L25:
 342              		.align	2
 343              	.L24:
 344 00b0 00380240 		.word	1073887232
 345 00b4 00700040 		.word	1073770496
 346 00b8 D34D6210 		.word	274877907
 347 00bc 00000000 		.word	.LC0
 348              		.cfi_endproc
 349              	.LFE128:
 351              		.section	.text.main,"ax",%progbits
 352              		.align	1
 353              		.global	main
 354              		.syntax unified
 355              		.thumb
 356              		.thumb_func
 357              		.fpu fpv4-sp-d16
 359              	main:
 360              	.LFB127:
  88:Src/main.c    ****   /* USER CODE BEGIN 1 */
 361              		.loc 1 88 0
 362              		.cfi_startproc
 363              		@ Volatile: function does not return.
 364              		@ args = 0, pretend = 0, frame = 0
 365              		@ frame_needed = 0, uses_anonymous_args = 0
 366 0000 08B5     		push	{r3, lr}
 367              	.LCFI8:
 368              		.cfi_def_cfa_offset 8
 369              		.cfi_offset 3, -8
 370              		.cfi_offset 14, -4
  96:Src/main.c    **** 
 371              		.loc 1 96 0
 372 0002 FFF7FEFF 		bl	HAL_Init
 373              	.LVL30:
 103:Src/main.c    **** 
 374              		.loc 1 103 0
 375 0006 FFF7FEFF 		bl	SystemClock_Config
 376              	.LVL31:
 110:Src/main.c    ****   MX_USART1_UART_Init();
 377              		.loc 1 110 0
 378 000a FFF7FEFF 		bl	MX_GPIO_Init
 379              	.LVL32:
 111:Src/main.c    ****   MX_TIM4_Init();
 380              		.loc 1 111 0
 381 000e FFF7FEFF 		bl	MX_USART1_UART_Init
 382              	.LVL33:
 112:Src/main.c    ****   MX_TIM1_Init();
 383              		.loc 1 112 0
 384 0012 FFF7FEFF 		bl	MX_TIM4_Init
 385              	.LVL34:
 113:Src/main.c    ****   MX_TIM2_Init();
 386              		.loc 1 113 0
 387 0016 FFF7FEFF 		bl	MX_TIM1_Init
ARM GAS  C:\Users\kotaro\AppData\Local\Temp\ccL6R3GD.s 			page 13


 388              	.LVL35:
 114:Src/main.c    ****   MX_TIM3_Init();
 389              		.loc 1 114 0
 390 001a FFF7FEFF 		bl	MX_TIM2_Init
 391              	.LVL36:
 115:Src/main.c    ****   MX_SPI2_Init();
 392              		.loc 1 115 0
 393 001e FFF7FEFF 		bl	MX_TIM3_Init
 394              	.LVL37:
 116:Src/main.c    ****   MX_ADC1_Init();
 395              		.loc 1 116 0
 396 0022 FFF7FEFF 		bl	MX_SPI2_Init
 397              	.LVL38:
 117:Src/main.c    ****   MX_ADC2_Init();
 398              		.loc 1 117 0
 399 0026 FFF7FEFF 		bl	MX_ADC1_Init
 400              	.LVL39:
 118:Src/main.c    ****   MX_ADC3_Init();
 401              		.loc 1 118 0
 402 002a FFF7FEFF 		bl	MX_ADC2_Init
 403              	.LVL40:
 119:Src/main.c    ****   MX_TIM5_Init();
 404              		.loc 1 119 0
 405 002e FFF7FEFF 		bl	MX_ADC3_Init
 406              	.LVL41:
 120:Src/main.c    ****   /* USER CODE BEGIN 2 */
 407              		.loc 1 120 0
 408 0032 FFF7FEFF 		bl	MX_TIM5_Init
 409              	.LVL42:
 125:Src/main.c    ****   //end test
 410              		.loc 1 125 0
 411 0036 0521     		movs	r1, #5
 412 0038 0120     		movs	r0, #1
 413 003a FFF7FEFF 		bl	ktr_LED
 414              	.LVL43:
 129:Src/main.c    ****   HAL_Delay(500);
 415              		.loc 1 129 0
 416 003e 4FF44871 		mov	r1, #800
 417 0042 8720     		movs	r0, #135
 418 0044 FFF7FEFF 		bl	ktr_Buzzer
 419              	.LVL44:
 130:Src/main.c    ****   ktr_Buzzer(NORMAL,0);
 420              		.loc 1 130 0
 421 0048 4FF4FA70 		mov	r0, #500
 422 004c FFF7FEFF 		bl	HAL_Delay
 423              	.LVL45:
 131:Src/main.c    ****   //end test ktr_buzzer()
 424              		.loc 1 131 0
 425 0050 0021     		movs	r1, #0
 426 0052 0920     		movs	r0, #9
 427 0054 FFF7FEFF 		bl	ktr_Buzzer
 428              	.LVL46:
 136:Src/main.c    ****   //HAL_TIM_Base_Start_IT( &htim5 );  // irq timer 250us
 429              		.loc 1 136 0
 430 0058 FFF7FEFF 		bl	ktr_set_l3gd20
 431              	.LVL47:
 141:Src/main.c    **** 
ARM GAS  C:\Users\kotaro\AppData\Local\Temp\ccL6R3GD.s 			page 14


 432              		.loc 1 141 0
 433 005c 064B     		ldr	r3, .L29
 434 005e 1B68     		ldr	r3, [r3]
 435 0060 0021     		movs	r1, #0
 436 0062 9868     		ldr	r0, [r3, #8]
 437 0064 FFF7FEFF 		bl	setbuf
 438              	.LVL48:
 439              	.L27:
 150:Src/main.c    ****    //end test ktr_get_gyro()
 440              		.loc 1 150 0 discriminator 1
 441 0068 FFF7FEFF 		bl	ktr_get_gyro
 442              	.LVL49:
 443 006c 0146     		mov	r1, r0
 444 006e 0348     		ldr	r0, .L29+4
 445 0070 FFF7FEFF 		bl	printf
 446              	.LVL50:
 447 0074 F8E7     		b	.L27
 448              	.L30:
 449 0076 00BF     		.align	2
 450              	.L29:
 451 0078 00000000 		.word	_impure_ptr
 452 007c 00000000 		.word	.LC1
 453              		.cfi_endproc
 454              	.LFE127:
 456              		.section	.rodata.SystemClock_Config.str1.4,"aMS",%progbits,1
 457              		.align	2
 458              	.LC0:
 459 0000 5372632F 		.ascii	"Src/main.c\000"
 459      6D61696E 
 459      2E6300
 460              		.section	.rodata.main.str1.4,"aMS",%progbits,1
 461              		.align	2
 462              	.LC1:
 463 0000 25303464 		.ascii	"%04d\015\000"
 463      0D00
 464              		.text
 465              	.Letext0:
 466              		.file 2 "c:\\program files (x86)\\gnu tools arm embedded\\7 2017-q4-major\\arm-none-eabi\\include\
 467              		.file 3 "c:\\program files (x86)\\gnu tools arm embedded\\7 2017-q4-major\\arm-none-eabi\\include\
 468              		.file 4 "Drivers/CMSIS/Include/core_cm4.h"
 469              		.file 5 "Drivers/CMSIS/Device/ST/STM32F4xx/Include/system_stm32f4xx.h"
 470              		.file 6 "Drivers/CMSIS/Device/ST/STM32F4xx/Include/stm32f405xx.h"
 471              		.file 7 "c:\\program files (x86)\\gnu tools arm embedded\\7 2017-q4-major\\arm-none-eabi\\include\
 472              		.file 8 "c:\\program files (x86)\\gnu tools arm embedded\\7 2017-q4-major\\arm-none-eabi\\include\
 473              		.file 9 "c:\\program files (x86)\\gnu tools arm embedded\\7 2017-q4-major\\lib\\gcc\\arm-none-eabi
 474              		.file 10 "c:\\program files (x86)\\gnu tools arm embedded\\7 2017-q4-major\\arm-none-eabi\\include
 475              		.file 11 "Drivers/STM32F4xx_HAL_Driver/Inc/stm32f4xx_hal_def.h"
 476              		.file 12 "Drivers/STM32F4xx_HAL_Driver/Inc/stm32f4xx_hal_rcc_ex.h"
 477              		.file 13 "Drivers/STM32F4xx_HAL_Driver/Inc/stm32f4xx_hal_rcc.h"
 478              		.file 14 "Drivers/STM32F4xx_HAL_Driver/Inc/stm32f4xx_hal_gpio.h"
 479              		.file 15 "Drivers/STM32F4xx_HAL_Driver/Inc/stm32f4xx_hal_dma.h"
 480              		.file 16 "Drivers/STM32F4xx_HAL_Driver/Inc/stm32f4xx_hal_adc.h"
 481              		.file 17 "Drivers/STM32F4xx_HAL_Driver/Inc/stm32f4xx_hal_spi.h"
 482              		.file 18 "Drivers/STM32F4xx_HAL_Driver/Inc/stm32f4xx_hal_tim.h"
 483              		.file 19 "Drivers/STM32F4xx_HAL_Driver/Inc/stm32f4xx_hal_uart.h"
 484              		.file 20 "Inc/adc.h"
 485              		.file 21 "Inc/spi.h"
ARM GAS  C:\Users\kotaro\AppData\Local\Temp\ccL6R3GD.s 			page 15


 486              		.file 22 "Inc/tim.h"
 487              		.file 23 "Inc/usart.h"
 488              		.file 24 "c:\\program files (x86)\\gnu tools arm embedded\\7 2017-q4-major\\arm-none-eabi\\include
 489              		.file 25 "Drivers/STM32F4xx_HAL_Driver/Inc/stm32f4xx_hal_cortex.h"
 490              		.file 26 "Drivers/STM32F4xx_HAL_Driver/Inc/stm32f4xx_hal.h"
 491              		.file 27 "Inc/gpio.h"
 492              		.file 28 "c:\\program files (x86)\\gnu tools arm embedded\\7 2017-q4-major\\arm-none-eabi\\include
ARM GAS  C:\Users\kotaro\AppData\Local\Temp\ccL6R3GD.s 			page 16


DEFINED SYMBOLS
                            *ABS*:00000000 main.c
C:\Users\kotaro\AppData\Local\Temp\ccL6R3GD.s:18     .text.__io_putchar:00000000 $t
C:\Users\kotaro\AppData\Local\Temp\ccL6R3GD.s:25     .text.__io_putchar:00000000 __io_putchar
C:\Users\kotaro\AppData\Local\Temp\ccL6R3GD.s:58     .text.__io_putchar:0000001c $d
C:\Users\kotaro\AppData\Local\Temp\ccL6R3GD.s:63     .text.ktr_Control_motor:00000000 $t
C:\Users\kotaro\AppData\Local\Temp\ccL6R3GD.s:70     .text.ktr_Control_motor:00000000 ktr_Control_motor
C:\Users\kotaro\AppData\Local\Temp\ccL6R3GD.s:177    .text.ktr_Control_motor:00000080 $d
C:\Users\kotaro\AppData\Local\Temp\ccL6R3GD.s:184    .text._Error_Handler:00000000 $t
C:\Users\kotaro\AppData\Local\Temp\ccL6R3GD.s:191    .text._Error_Handler:00000000 _Error_Handler
C:\Users\kotaro\AppData\Local\Temp\ccL6R3GD.s:206    .text.SystemClock_Config:00000000 $t
C:\Users\kotaro\AppData\Local\Temp\ccL6R3GD.s:213    .text.SystemClock_Config:00000000 SystemClock_Config
C:\Users\kotaro\AppData\Local\Temp\ccL6R3GD.s:344    .text.SystemClock_Config:000000b0 $d
C:\Users\kotaro\AppData\Local\Temp\ccL6R3GD.s:352    .text.main:00000000 $t
C:\Users\kotaro\AppData\Local\Temp\ccL6R3GD.s:359    .text.main:00000000 main
C:\Users\kotaro\AppData\Local\Temp\ccL6R3GD.s:451    .text.main:00000078 $d
C:\Users\kotaro\AppData\Local\Temp\ccL6R3GD.s:457    .rodata.SystemClock_Config.str1.4:00000000 $d
C:\Users\kotaro\AppData\Local\Temp\ccL6R3GD.s:461    .rodata.main.str1.4:00000000 $d

UNDEFINED SYMBOLS
HAL_UART_Transmit
huart1
HAL_GPIO_WritePin
ktr_Motor_pwm
HAL_RCC_OscConfig
HAL_RCC_ClockConfig
HAL_RCC_GetHCLKFreq
HAL_SYSTICK_Config
HAL_SYSTICK_CLKSourceConfig
HAL_NVIC_SetPriority
HAL_Init
MX_GPIO_Init
MX_USART1_UART_Init
MX_TIM4_Init
MX_TIM1_Init
MX_TIM2_Init
MX_TIM3_Init
MX_SPI2_Init
MX_ADC1_Init
MX_ADC2_Init
MX_ADC3_Init
MX_TIM5_Init
ktr_LED
ktr_Buzzer
HAL_Delay
ktr_set_l3gd20
setbuf
ktr_get_gyro
printf
_impure_ptr
